target datalayout = "e-m:e-p270:32:32-p271:32:32-p272:64:64-i64:64-i128:128-f80:128-n8:16:32:64-S128"
target triple = "x86_64-pc-linux-gnu"

%"class.nanogui::TextBox" = type { %"class.nanogui::Widget.base", i8, i8, i8, %"class.std::__cxx11::basic_string", %"class.std::__cxx11::basic_string", i32, %"class.std::__cxx11::basic_string", %"class.std::__cxx11::basic_string", i32, %"class.std::function", i8, %"class.std::__cxx11::basic_string", %"class.std::__cxx11::basic_string", i32, i32, %"struct.nanogui::Array", %"struct.nanogui::Array", %"struct.nanogui::Array", i32, float, double }
%"class.nanogui::Widget.base" = type <{ %"class.nanogui::Object.base", [4 x i8], ptr, %"class.nanogui::ref", %"class.nanogui::ref.0", %"struct.nanogui::Array", %"struct.nanogui::Array", %"struct.nanogui::Array", %"class.std::vector", i8, i8, i8, i8, [4 x i8], %"class.std::__cxx11::basic_string", i32, float, i32 }>
%"class.nanogui::Object.base" = type <{ ptr, %"struct.std::atomic" }>
%"struct.std::atomic" = type { %"struct.std::__atomic_base" }
%"struct.std::__atomic_base" = type { i32 }
%"class.nanogui::ref" = type { ptr }
%"class.nanogui::ref.0" = type { ptr }
%"class.std::vector" = type { %"struct.std::_Vector_base" }
%"struct.std::_Vector_base" = type { %"struct.std::_Vector_base<nanogui::Widget *, std::allocator<nanogui::Widget *>>::_Vector_impl" }
%"struct.std::_Vector_base<nanogui::Widget *, std::allocator<nanogui::Widget *>>::_Vector_impl" = type { %"struct.std::_Vector_base<nanogui::Widget *, std::allocator<nanogui::Widget *>>::_Vector_impl_data" }
%"struct.std::_Vector_base<nanogui::Widget *, std::allocator<nanogui::Widget *>>::_Vector_impl_data" = type { ptr, ptr, ptr }
%"class.std::function" = type { %"class.std::_Function_base", ptr }
%"class.std::_Function_base" = type { %"union.std::_Any_data", ptr }
%"union.std::_Any_data" = type { %"union.std::_Nocopy_types" }
%"union.std::_Nocopy_types" = type { { i64, i64 } }
%"class.std::__cxx11::basic_string" = type { %"struct.std::__cxx11::basic_string<char>::_Alloc_hider", i64, %union.anon }
%"struct.std::__cxx11::basic_string<char>::_Alloc_hider" = type { ptr }
%union.anon = type { i64, [8 x i8] }
%"struct.nanogui::Array" = type { [2 x i32] }
%struct.NVGglyphPosition = type { ptr, float, float, float }

; Function Attrs: mustprogress nounwind uwtable
define linkonce_odr dso_local noundef float @_ZSt3absf(float noundef %0) #5 comdat {
  %2 = alloca float, align 4
  store float %0, ptr %2, align 4
  %3 = load float, ptr %2, align 4
  %4 = call float @llvm.fabs.f32(float %3)
  ret float %4
}

; Function Attrs: mustprogress nounwind uwtable
define linkonce_odr hidden void @_ZN7nanogui5ArrayIiLm2EEC2ILm2ETnNSt9enable_ifIXeqT_Li2EEiE4typeELi0EEEii(ptr noundef nonnull align 4 dereferenceable(8) %0, i32 noundef %1, i32 noundef %2) unnamed_addr #5 comdat align 2 {
  %4 = alloca ptr, align 8
  %5 = alloca i32, align 4
  %6 = alloca i32, align 4
  store ptr %0, ptr %4, align 8
  store i32 %1, ptr %5, align 4
  store i32 %2, ptr %6, align 4
  %7 = load ptr, ptr %4, align 8
  %8 = load i32, ptr %5, align 4
  %9 = getelementptr inbounds %"struct.nanogui::Array", ptr %7, i32 0, i32 0
  %10 = getelementptr inbounds [2 x i32], ptr %9, i64 0, i64 0
  store i32 %8, ptr %10, align 4
  %11 = load i32, ptr %6, align 4
  %12 = getelementptr inbounds %"struct.nanogui::Array", ptr %7, i32 0, i32 0
  %13 = getelementptr inbounds [2 x i32], ptr %12, i64 0, i64 1
  store i32 %11, ptr %13, align 4
  ret void
}

; Function Attrs: mustprogress uwtable
define hidden noundef i32 @_ZN7nanogui7TextBox24position_to_cursor_indexEffPK16NVGglyphPositioni(ptr noundef nonnull align 8 dereferenceable(440) %0, float noundef %1, float noundef %2, ptr noundef %3, i32 noundef %4) #4 align 2 {
  %6 = alloca ptr, align 8
  %7 = alloca float, align 4
  %8 = alloca float, align 4
  %9 = alloca ptr, align 8
  %10 = alloca i32, align 4
  %11 = alloca i32, align 4
  %12 = alloca float, align 4
  %13 = alloca i32, align 4
  store ptr %0, ptr %6, align 8
  store float %1, ptr %7, align 4
  store float %2, ptr %8, align 4
  store ptr %3, ptr %9, align 8
  store i32 %4, ptr %10, align 4
  store i32 0, ptr %11, align 4
  %14 = load ptr, ptr %9, align 8
  %15 = load i32, ptr %11, align 4
  %16 = sext i32 %15 to i64
  %17 = getelementptr inbounds %struct.NVGglyphPosition, ptr %14, i64 %16
  %18 = getelementptr inbounds %struct.NVGglyphPosition, ptr %17, i32 0, i32 1
  %19 = load float, ptr %18, align 8
  store float %19, ptr %12, align 4
  store i32 1, ptr %13, align 4
  br label %20

20:                                               ; preds = %48, %5
  %21 = load i32, ptr %13, align 4
  %22 = load i32, ptr %10, align 4
  %23 = icmp slt i32 %21, %22
  br i1 %23, label %24, label %51

24:                                               ; preds = %20
  %25 = load float, ptr %12, align 4
  %26 = load float, ptr %7, align 4
  %27 = fsub float %25, %26
  %28 = call noundef float @_ZSt3absf(float noundef %27)
  %29 = load ptr, ptr %9, align 8
  %30 = load i32, ptr %13, align 4
  %31 = sext i32 %30 to i64
  %32 = getelementptr inbounds %struct.NVGglyphPosition, ptr %29, i64 %31
  %33 = getelementptr inbounds %struct.NVGglyphPosition, ptr %32, i32 0, i32 1
  %34 = load float, ptr %33, align 8
  %35 = load float, ptr %7, align 4
  %36 = fsub float %34, %35
  %37 = call noundef float @_ZSt3absf(float noundef %36)
  %38 = fcmp ogt float %28, %37
  br i1 %38, label %39, label %47

39:                                               ; preds = %24
  %40 = load i32, ptr %13, align 4
  store i32 %40, ptr %11, align 4
  %41 = load ptr, ptr %9, align 8
  %42 = load i32, ptr %11, align 4
  %43 = sext i32 %42 to i64
  %44 = getelementptr inbounds %struct.NVGglyphPosition, ptr %41, i64 %43
  %45 = getelementptr inbounds %struct.NVGglyphPosition, ptr %44, i32 0, i32 1
  %46 = load float, ptr %45, align 8
  store float %46, ptr %12, align 4
  br label %47

47:                                               ; preds = %39, %24
  br label %48

48:                                               ; preds = %47
  %49 = load i32, ptr %13, align 4
  %50 = add nsw i32 %49, 1
  store i32 %50, ptr %13, align 4
  br label %20, !llvm.loop !5

51:                                               ; preds = %20
  %52 = load float, ptr %12, align 4
  %53 = load float, ptr %7, align 4
  %54 = fsub float %52, %53
  %55 = call noundef float @_ZSt3absf(float noundef %54)
  %56 = load float, ptr %8, align 4
  %57 = load float, ptr %7, align 4
  %58 = fsub float %56, %57
  %59 = call noundef float @_ZSt3absf(float noundef %58)
  %60 = fcmp ogt float %55, %59
  br i1 %60, label %61, label %63

61:                                               ; preds = %51
  %62 = load i32, ptr %10, align 4
  store i32 %62, ptr %11, align 4
  br label %63

63:                                               ; preds = %61, %51
  %64 = load i32, ptr %11, align 4
  ret i32 %64
}

; Function Attrs: mustprogress nounwind uwtable
define linkonce_odr hidden noundef nonnull align 4 dereferenceable(4) ptr @_ZN7nanogui5ArrayIiLm2EE1xILm2ETnNSt9enable_ifIXgeT_Li1EEiE4typeELi0EEERiv(ptr noundef nonnull align 4 dereferenceable(8) %0) #5 comdat align 2 {
  %2 = alloca ptr, align 8
  store ptr %0, ptr %2, align 8
  %3 = load ptr, ptr %2, align 8
  %4 = getelementptr inbounds %"struct.nanogui::Array", ptr %3, i32 0, i32 0
  %5 = getelementptr inbounds [2 x i32], ptr %4, i64 0, i64 0
  ret ptr %5
}

; Function Attrs: mustprogress uwtable
define hidden void @_ZN7nanogui7TextBox13update_cursorEP10NVGcontextfPK16NVGglyphPositioni(ptr noundef nonnull align 8 dereferenceable(440) %0, ptr noundef %1, float noundef %2, ptr noundef %3, i32 noundef %4) #4 align 2 {
  %6 = alloca ptr, align 8
  %7 = alloca ptr, align 8
  %8 = alloca float, align 4
  %9 = alloca ptr, align 8
  %10 = alloca i32, align 4
  %11 = alloca %"struct.nanogui::Array", align 4
  store ptr %0, ptr %6, align 8
  store ptr %1, ptr %7, align 8
  store float %2, ptr %8, align 4
  store ptr %3, ptr %9, align 8
  store i32 %4, ptr %10, align 4
  %12 = load ptr, ptr %6, align 8
  %13 = getelementptr inbounds %"class.nanogui::TextBox", ptr %12, i32 0, i32 17
  %14 = call noundef nonnull align 4 dereferenceable(4) ptr @_ZN7nanogui5ArrayIiLm2EE1xILm2ETnNSt9enable_ifIXgeT_Li1EEiE4typeELi0EEERiv(ptr noundef nonnull align 4 dereferenceable(8) %13)
  %15 = load i32, ptr %14, align 4
  %16 = icmp ne i32 %15, -1
  br i1 %16, label %17, label %43

17:                                               ; preds = %5
  %18 = getelementptr inbounds %"class.nanogui::TextBox", ptr %12, i32 0, i32 19
  %19 = load i32, ptr %18, align 8
  %20 = icmp eq i32 %19, 1
  br i1 %20, label %21, label %30

21:                                               ; preds = %17
  %22 = getelementptr inbounds %"class.nanogui::TextBox", ptr %12, i32 0, i32 15
  %23 = load i32, ptr %22, align 4
  %24 = icmp eq i32 %23, -1
  br i1 %24, label %25, label %29

25:                                               ; preds = %21
  %26 = getelementptr inbounds %"class.nanogui::TextBox", ptr %12, i32 0, i32 14
  %27 = load i32, ptr %26, align 8
  %28 = getelementptr inbounds %"class.nanogui::TextBox", ptr %12, i32 0, i32 15
  store i32 %27, ptr %28, align 4
  br label %29

29:                                               ; preds = %25, %21
  br label %32

30:                                               ; preds = %17
  %31 = getelementptr inbounds %"class.nanogui::TextBox", ptr %12, i32 0, i32 15
  store i32 -1, ptr %31, align 4
  br label %32

32:                                               ; preds = %30, %29
  %33 = getelementptr inbounds %"class.nanogui::TextBox", ptr %12, i32 0, i32 17
  %34 = call noundef nonnull align 4 dereferenceable(4) ptr @_ZN7nanogui5ArrayIiLm2EE1xILm2ETnNSt9enable_ifIXgeT_Li1EEiE4typeELi0EEERiv(ptr noundef nonnull align 4 dereferenceable(8) %33)
  %35 = load i32, ptr %34, align 4
  %36 = sitofp i32 %35 to float
  %37 = load float, ptr %8, align 4
  %38 = load ptr, ptr %9, align 8
  %39 = load i32, ptr %10, align 4
  %40 = call noundef i32 @_ZN7nanogui7TextBox24position_to_cursor_indexEffPK16NVGglyphPositioni(ptr noundef nonnull align 8 dereferenceable(440) %12, float noundef %36, float noundef %37, ptr noundef %38, i32 noundef %39)
  %41 = getelementptr inbounds %"class.nanogui::TextBox", ptr %12, i32 0, i32 14
  store i32 %40, ptr %41, align 8
  call void @_ZN7nanogui5ArrayIiLm2EEC2ILm2ETnNSt9enable_ifIXeqT_Li2EEiE4typeELi0EEEii(ptr noundef nonnull align 4 dereferenceable(8) %11, i32 noundef -1, i32 noundef -1)
  %42 = getelementptr inbounds %"class.nanogui::TextBox", ptr %12, i32 0, i32 17
  call void @llvm.memcpy.p0.p0.i64(ptr align 8 %42, ptr align 4 %11, i64 8, i1 false)
  br label %75

43:                                               ; preds = %5
  %44 = getelementptr inbounds %"class.nanogui::TextBox", ptr %12, i32 0, i32 18
  %45 = call noundef nonnull align 4 dereferenceable(4) ptr @_ZN7nanogui5ArrayIiLm2EE1xILm2ETnNSt9enable_ifIXgeT_Li1EEiE4typeELi0EEERiv(ptr noundef nonnull align 4 dereferenceable(8) %44)
  %46 = load i32, ptr %45, align 4
  %47 = icmp ne i32 %46, -1
  br i1 %47, label %48, label %66

48:                                               ; preds = %43
  %49 = getelementptr inbounds %"class.nanogui::TextBox", ptr %12, i32 0, i32 15
  %50 = load i32, ptr %49, align 4
  %51 = icmp eq i32 %50, -1
  br i1 %51, label %52, label %56

52:                                               ; preds = %48
  %53 = getelementptr inbounds %"class.nanogui::TextBox", ptr %12, i32 0, i32 14
  %54 = load i32, ptr %53, align 8
  %55 = getelementptr inbounds %"class.nanogui::TextBox", ptr %12, i32 0, i32 15
  store i32 %54, ptr %55, align 4
  br label %56

56:                                               ; preds = %52, %48
  %57 = getelementptr inbounds %"class.nanogui::TextBox", ptr %12, i32 0, i32 18
  %58 = call noundef nonnull align 4 dereferenceable(4) ptr @_ZN7nanogui5ArrayIiLm2EE1xILm2ETnNSt9enable_ifIXgeT_Li1EEiE4typeELi0EEERiv(ptr noundef nonnull align 4 dereferenceable(8) %57)
  %59 = load i32, ptr %58, align 4
  %60 = sitofp i32 %59 to float
  %61 = load float, ptr %8, align 4
  %62 = load ptr, ptr %9, align 8
  %63 = load i32, ptr %10, align 4
  %64 = call noundef i32 @_ZN7nanogui7TextBox24position_to_cursor_indexEffPK16NVGglyphPositioni(ptr noundef nonnull align 8 dereferenceable(440) %12, float noundef %60, float noundef %61, ptr noundef %62, i32 noundef %63)
  %65 = getelementptr inbounds %"class.nanogui::TextBox", ptr %12, i32 0, i32 14
  store i32 %64, ptr %65, align 8
  br label %74

66:                                               ; preds = %43
  %67 = getelementptr inbounds %"class.nanogui::TextBox", ptr %12, i32 0, i32 14
  %68 = load i32, ptr %67, align 8
  %69 = icmp eq i32 %68, -2
  br i1 %69, label %70, label %73

70:                                               ; preds = %66
  %71 = load i32, ptr %10, align 4
  %72 = getelementptr inbounds %"class.nanogui::TextBox", ptr %12, i32 0, i32 14
  store i32 %71, ptr %72, align 8
  br label %73

73:                                               ; preds = %70, %66
  br label %74

74:                                               ; preds = %73, %56
  br label %75

75:                                               ; preds = %74, %32
  %76 = getelementptr inbounds %"class.nanogui::TextBox", ptr %12, i32 0, i32 14
  %77 = load i32, ptr %76, align 8
  %78 = getelementptr inbounds %"class.nanogui::TextBox", ptr %12, i32 0, i32 15
  %79 = load i32, ptr %78, align 4
  %80 = icmp eq i32 %77, %79
  br i1 %80, label %81, label %83

81:                                               ; preds = %75
  %82 = getelementptr inbounds %"class.nanogui::TextBox", ptr %12, i32 0, i32 15
  store i32 -1, ptr %82, align 4
  br label %83

83:                                               ; preds = %81, %75
  ret void
}