; Function Attrs: mustprogress nofree norecurse nosync nounwind memory(argmem: readwrite) uwtable
define hidden void @_ZN7nanogui7TextBox13update_cursorEP10NVGcontextfPK16NVGglyphPositioni(ptr nocapture noundef nonnull align 8 dereferenceable(440) %0, ptr nocapture readnone %1, float noundef %2, ptr nocapture noundef readonly %3, i32 noundef %4) local_unnamed_addr #9 align 2 {
  %6 = getelementptr inbounds i8, ptr %0, i64 408
  %7 = load i32, ptr %6, align 8
  %.not = icmp eq i32 %7, -1
  br i1 %.not, label %38, label %8

8:                                                ; preds = %5
  %9 = getelementptr inbounds i8, ptr %0, i64 424
  %10 = load i32, ptr %9, align 8
  %11 = icmp eq i32 %10, 1
  %12 = getelementptr inbounds i8, ptr %0, i64 396
  br i1 %11, label %13, label %.sink.split

13:                                               ; preds = %8
  %14 = load i32, ptr %12, align 4
  %15 = icmp eq i32 %14, -1
  br i1 %15, label %16, label %19

16:                                               ; preds = %13
  %17 = getelementptr inbounds i8, ptr %0, i64 392
  %18 = load i32, ptr %17, align 8
  br label %.sink.split

.sink.split:                                      ; preds = %8, %16
  %.sink = phi i32 [ %18, %16 ], [ -1, %8 ]
  store i32 %.sink, ptr %12, align 4
  br label %19

19:                                               ; preds = %.sink.split, %13
  %20 = sitofp i32 %7 to float
  %21 = getelementptr inbounds i8, ptr %3, i64 8
  %22 = load float, ptr %21, align 8
  %23 = icmp sgt i32 %4, 1
  br i1 %23, label %.lr.ph.preheader.i, label %_ZN7nanogui7TextBox24position_to_cursor_indexEffPK16NVGglyphPositioni.exit

.lr.ph.preheader.i:                               ; preds = %19
  %wide.trip.count.i = zext nneg i32 %4 to i64
  br label %.lr.ph.i

.lr.ph.i:                                         ; preds = %.lr.ph.i, %.lr.ph.preheader.i
  %indvars.iv.i = phi i64 [ 1, %.lr.ph.preheader.i ], [ %indvars.iv.next.i, %.lr.ph.i ]
  %.01823.i = phi float [ %22, %.lr.ph.preheader.i ], [ %.1.i, %.lr.ph.i ]
  %.01922.i = phi i32 [ 0, %.lr.ph.preheader.i ], [ %.120.i, %.lr.ph.i ]
  %24 = fsub float %.01823.i, %20
  %25 = tail call noundef float @llvm.fabs.f32(float %24)
  %26 = getelementptr inbounds %struct.NVGglyphPosition, ptr %3, i64 %indvars.iv.i, i32 1
  %27 = load float, ptr %26, align 8
  %28 = fsub float %27, %20
  %29 = tail call noundef float @llvm.fabs.f32(float %28)
  %30 = fcmp ogt float %25, %29
  %31 = trunc i64 %indvars.iv.i to i32
  %.120.i = select i1 %30, i32 %31, i32 %.01922.i
  %.1.i = select i1 %30, float %27, float %.01823.i
  %indvars.iv.next.i = add nuw nsw i64 %indvars.iv.i, 1
  %exitcond.not.i = icmp eq i64 %indvars.iv.next.i, %wide.trip.count.i
  br i1 %exitcond.not.i, label %_ZN7nanogui7TextBox24position_to_cursor_indexEffPK16NVGglyphPositioni.exit, label %.lr.ph.i, !llvm.loop !10

_ZN7nanogui7TextBox24position_to_cursor_indexEffPK16NVGglyphPositioni.exit: ; preds = %.lr.ph.i, %19
  %.019.lcssa.i = phi i32 [ 0, %19 ], [ %.120.i, %.lr.ph.i ]
  %.018.lcssa.i = phi float [ %22, %19 ], [ %.1.i, %.lr.ph.i ]
  %32 = fsub float %.018.lcssa.i, %20
  %33 = tail call noundef float @llvm.fabs.f32(float %32)
  %34 = fsub float %2, %20
  %35 = tail call noundef float @llvm.fabs.f32(float %34)
  %36 = fcmp ogt float %33, %35
  %.2.i = select i1 %36, i32 %4, i32 %.019.lcssa.i
  %37 = getelementptr inbounds i8, ptr %0, i64 392
  store i32 %.2.i, ptr %37, align 8
  store i64 -1, ptr %6, align 8
  br label %72

38:                                               ; preds = %5
  %39 = getelementptr inbounds i8, ptr %0, i64 416
  %40 = load i32, ptr %39, align 8
  %.not7 = icmp eq i32 %40, -1
  br i1 %.not7, label %67, label %41

41:                                               ; preds = %38
  %42 = getelementptr inbounds i8, ptr %0, i64 396
  %43 = load i32, ptr %42, align 4
  %44 = icmp eq i32 %43, -1
  br i1 %44, label %45, label %48

45:                                               ; preds = %41
  %46 = getelementptr inbounds i8, ptr %0, i64 392
  %47 = load i32, ptr %46, align 8
  store i32 %47, ptr %42, align 4
  br label %48

48:                                               ; preds = %45, %41
  %49 = sitofp i32 %40 to float
  %50 = getelementptr inbounds i8, ptr %3, i64 8
  %51 = load float, ptr %50, align 8
  %52 = icmp sgt i32 %4, 1
  br i1 %52, label %.lr.ph.preheader.i11, label %_ZN7nanogui7TextBox24position_to_cursor_indexEffPK16NVGglyphPositioni.exit21

.lr.ph.preheader.i11:                             ; preds = %48
  %wide.trip.count.i12 = zext nneg i32 %4 to i64
  br label %.lr.ph.i13

.lr.ph.i13:                                       ; preds = %.lr.ph.i13, %.lr.ph.preheader.i11
  %indvars.iv.i14 = phi i64 [ 1, %.lr.ph.preheader.i11 ], [ %indvars.iv.next.i19, %.lr.ph.i13 ]
  %.01823.i15 = phi float [ %51, %.lr.ph.preheader.i11 ], [ %.1.i18, %.lr.ph.i13 ]
  %.01922.i16 = phi i32 [ 0, %.lr.ph.preheader.i11 ], [ %.120.i17, %.lr.ph.i13 ]
  %53 = fsub float %.01823.i15, %49
  %54 = tail call noundef float @llvm.fabs.f32(float %53)
  %55 = getelementptr inbounds %struct.NVGglyphPosition, ptr %3, i64 %indvars.iv.i14, i32 1
  %56 = load float, ptr %55, align 8
  %57 = fsub float %56, %49
  %58 = tail call noundef float @llvm.fabs.f32(float %57)
  %59 = fcmp ogt float %54, %58
  %60 = trunc i64 %indvars.iv.i14 to i32
  %.120.i17 = select i1 %59, i32 %60, i32 %.01922.i16
  %.1.i18 = select i1 %59, float %56, float %.01823.i15
  %indvars.iv.next.i19 = add nuw nsw i64 %indvars.iv.i14, 1
  %exitcond.not.i20 = icmp eq i64 %indvars.iv.next.i19, %wide.trip.count.i12
  br i1 %exitcond.not.i20, label %_ZN7nanogui7TextBox24position_to_cursor_indexEffPK16NVGglyphPositioni.exit21, label %.lr.ph.i13, !llvm.loop !10

_ZN7nanogui7TextBox24position_to_cursor_indexEffPK16NVGglyphPositioni.exit21: ; preds = %.lr.ph.i13, %48
  %.019.lcssa.i8 = phi i32 [ 0, %48 ], [ %.120.i17, %.lr.ph.i13 ]
  %.018.lcssa.i9 = phi float [ %51, %48 ], [ %.1.i18, %.lr.ph.i13 ]
  %61 = fsub float %.018.lcssa.i9, %49
  %62 = tail call noundef float @llvm.fabs.f32(float %61)
  %63 = fsub float %2, %49
  %64 = tail call noundef float @llvm.fabs.f32(float %63)
  %65 = fcmp ogt float %62, %64
  %.2.i10 = select i1 %65, i32 %4, i32 %.019.lcssa.i8
  %66 = getelementptr inbounds i8, ptr %0, i64 392
  store i32 %.2.i10, ptr %66, align 8
  br label %72

67:                                               ; preds = %38
  %68 = getelementptr inbounds i8, ptr %0, i64 392
  %69 = load i32, ptr %68, align 8
  %70 = icmp eq i32 %69, -2
  br i1 %70, label %71, label %72

71:                                               ; preds = %67
  store i32 %4, ptr %68, align 8
  br label %72

72:                                               ; preds = %_ZN7nanogui7TextBox24position_to_cursor_indexEffPK16NVGglyphPositioni.exit21, %71, %67, %_ZN7nanogui7TextBox24position_to_cursor_indexEffPK16NVGglyphPositioni.exit
  %73 = phi i32 [ %.2.i10, %_ZN7nanogui7TextBox24position_to_cursor_indexEffPK16NVGglyphPositioni.exit21 ], [ %4, %71 ], [ %69, %67 ], [ %.2.i, %_ZN7nanogui7TextBox24position_to_cursor_indexEffPK16NVGglyphPositioni.exit ]
  %74 = getelementptr inbounds i8, ptr %0, i64 396
  %75 = load i32, ptr %74, align 4
  %76 = icmp eq i32 %73, %75
  br i1 %76, label %77, label %78

77:                                               ; preds = %72
  store i32 -1, ptr %74, align 4
  br label %78

78:                                               ; preds = %77, %72
  ret void
}